; Function Attrs: mustprogress uwtable
define dso_local void @_ZNK4pbrt17AnimatedTransformclERKNS_11InteractionE(ptr dead_on_unwind noalias writable sret(%"class.pbrt::Interaction") align 8 captures(none) initializes((64, 80)) %0, ptr noundef nonnull align 4 dereferenceable(696) %1, ptr noundef nonnull align 8 dereferenceable(80) %2) local_unnamed_addr #9 align 2 {
  %4 = alloca %"class.pbrt::Transform", align 4
  %5 = getelementptr inbounds nuw i8, ptr %1, i64 264
  %6 = load i8, ptr %5, align 4, !tbaa !158, !range !32, !noundef !33
  %7 = trunc nuw i8 %6 to i1
  br i1 %7, label %9, label %8

8:                                                ; preds = %3
  tail call void @_ZNK4pbrt9TransformclERKNS_11InteractionE(ptr dead_on_unwind writable sret(%"class.pbrt::Interaction") align 8 %0, ptr noundef nonnull align 4 dereferenceable(128) %1, ptr noundef nonnull align 8 dereferenceable(80) %2)
  br label %12

9:                                                ; preds = %3
  call void @llvm.lifetime.start.p0(i64 128, ptr nonnull %4) #30
  %10 = getelementptr inbounds nuw i8, ptr %2, i64 24
  %11 = load float, ptr %10, align 8, !tbaa !117
  call void @_ZNK4pbrt17AnimatedTransform11InterpolateEf(ptr dead_on_unwind nonnull writable sret(%"class.pbrt::Transform") align 4 %4, ptr noundef nonnull align 4 dereferenceable(696) %1, float noundef %11)
  call void @_ZNK4pbrt9TransformclERKNS_11InteractionE(ptr dead_on_unwind writable sret(%"class.pbrt::Interaction") align 8 %0, ptr noundef nonnull align 4 dereferenceable(128) %4, ptr noundef nonnull align 8 dereferenceable(80) %2)
  call void @llvm.lifetime.end.p0(i64 128, ptr nonnull %4) #30
  br label %12

12:                                               ; preds = %9, %8
  ret void
}